target datalayout = "e-m:e-p270:32:32-p271:32:32-p272:64:64-i64:64-i128:128-f80:128-n8:16:32:64-S128"
target triple = "x86_64-pc-linux-gnu"

; Function Attrs: nounwind uwtable
define void @lv_msgbox_close(ptr noundef %0) #0 {
  %2 = alloca ptr, align 8
  store ptr %0, ptr %2, align 8, !tbaa !3
  %3 = load ptr, ptr %2, align 8, !tbaa !3
  %4 = call zeroext i1 @lv_obj_has_flag(ptr noundef %3, i32 noundef 33554432)
  br i1 %4, label %5, label %8

5:                                                ; preds = %1
  %6 = load ptr, ptr %2, align 8, !tbaa !3
  %7 = call ptr @lv_obj_get_parent(ptr noundef %6)
  call void @lv_obj_delete(ptr noundef %7)
  br label %10

8:                                                ; preds = %1
  %9 = load ptr, ptr %2, align 8, !tbaa !3
  call void @lv_obj_delete(ptr noundef %9)
  br label %10

10:                                               ; preds = %8, %5
  ret void
}

; Function Attrs: nounwind uwtable
define internal void @msgbox_close_click_event_cb(ptr noundef %0) #0 {
  %2 = alloca ptr, align 8
  %3 = alloca ptr, align 8
  %4 = alloca ptr, align 8
  store ptr %0, ptr %2, align 8, !tbaa !3
  call void @llvm.lifetime.start.p0(i64 8, ptr %3) #4
  %5 = load ptr, ptr %2, align 8, !tbaa !3
  %6 = call ptr @lv_event_get_current_target(ptr noundef %5)
  store ptr %6, ptr %3, align 8, !tbaa !3
  call void @llvm.lifetime.start.p0(i64 8, ptr %4) #4
  %7 = load ptr, ptr %3, align 8, !tbaa !3
  %8 = call ptr @lv_obj_get_parent(ptr noundef %7)
  %9 = call ptr @lv_obj_get_parent(ptr noundef %8)
  store ptr %9, ptr %4, align 8, !tbaa !3
  %10 = load ptr, ptr %4, align 8, !tbaa !3
  call void @lv_msgbox_close(ptr noundef %10)
  call void @llvm.lifetime.end.p0(i64 8, ptr %4) #4
  call void @llvm.lifetime.end.p0(i64 8, ptr %3) #4
  ret void
}