; Function Attrs: nounwind uwtable
define internal void @msgbox_close_click_event_cb(ptr noundef %0) #0 {
  %2 = tail call ptr @lv_event_get_current_target(ptr noundef %0) #3
  %3 = tail call ptr @lv_obj_get_parent(ptr noundef %2) #3
  %4 = tail call ptr @lv_obj_get_parent(ptr noundef %3) #3
  %5 = tail call zeroext i1 @lv_obj_has_flag(ptr noundef %4, i32 noundef 33554432) #3
  br i1 %5, label %6, label %lv_msgbox_close.exit

6:                                                ; preds = %1
  %7 = tail call ptr @lv_obj_get_parent(ptr noundef %4) #3
  br label %lv_msgbox_close.exit

lv_msgbox_close.exit:                             ; preds = %1, %6
  %.sink.i = phi ptr [ %7, %6 ], [ %4, %1 ]
  tail call void @lv_obj_delete(ptr noundef %.sink.i) #3
  ret void
}